target datalayout = "e-m:e-p270:32:32-p271:32:32-p272:64:64-i64:64-i128:128-f80:128-n8:16:32:64-S128"
target triple = "x86_64-pc-linux-gnu"

%struct.png_row_info_struct = type { i32, i64, i8, i8, i8, i8 }

; Function Attrs: nounwind uwtable
define internal void @png_read_filter_row_avg(ptr noundef %0, ptr noundef %1, ptr noundef %2) #0 {
  %4 = alloca ptr, align 8
  %5 = alloca ptr, align 8
  %6 = alloca ptr, align 8
  %7 = alloca i64, align 8
  %8 = alloca ptr, align 8
  %9 = alloca ptr, align 8
  %10 = alloca i32, align 4
  %11 = alloca i64, align 8
  store ptr %0, ptr %4, align 8, !tbaa !69
  store ptr %1, ptr %5, align 8, !tbaa !8
  store ptr %2, ptr %6, align 8, !tbaa !8
  call void @llvm.lifetime.start.p0(i64 8, ptr %7) #7
  call void @llvm.lifetime.start.p0(i64 8, ptr %8) #7
  %12 = load ptr, ptr %5, align 8, !tbaa !8
  store ptr %12, ptr %8, align 8, !tbaa !8
  call void @llvm.lifetime.start.p0(i64 8, ptr %9) #7
  %13 = load ptr, ptr %6, align 8, !tbaa !8
  store ptr %13, ptr %9, align 8, !tbaa !8
  call void @llvm.lifetime.start.p0(i64 4, ptr %10) #7
  %14 = load ptr, ptr %4, align 8, !tbaa !69
  %15 = getelementptr inbounds nuw %struct.png_row_info_struct, ptr %14, i32 0, i32 5
  %16 = load i8, ptr %15, align 1, !tbaa !73
  %17 = zext i8 %16 to i32
  %18 = add nsw i32 %17, 7
  %19 = ashr i32 %18, 3
  store i32 %19, ptr %10, align 4, !tbaa !11
  call void @llvm.lifetime.start.p0(i64 8, ptr %11) #7
  %20 = load ptr, ptr %4, align 8, !tbaa !69
  %21 = getelementptr inbounds nuw %struct.png_row_info_struct, ptr %20, i32 0, i32 1
  %22 = load i64, ptr %21, align 8, !tbaa !82
  %23 = load i32, ptr %10, align 4, !tbaa !11
  %24 = zext i32 %23 to i64
  %25 = sub i64 %22, %24
  store i64 %25, ptr %11, align 8, !tbaa !29
  store i64 0, ptr %7, align 8, !tbaa !29
  br label %26

26:                                               ; preds = %46, %3
  %27 = load i64, ptr %7, align 8, !tbaa !29
  %28 = load i32, ptr %10, align 4, !tbaa !11
  %29 = zext i32 %28 to i64
  %30 = icmp ult i64 %27, %29
  br i1 %30, label %31, label %49

31:                                               ; preds = %26
  %32 = load ptr, ptr %8, align 8, !tbaa !8
  %33 = load i8, ptr %32, align 1, !tbaa !10
  %34 = zext i8 %33 to i32
  %35 = load ptr, ptr %9, align 8, !tbaa !8
  %36 = getelementptr inbounds nuw i8, ptr %35, i32 1
  store ptr %36, ptr %9, align 8, !tbaa !8
  %37 = load i8, ptr %35, align 1, !tbaa !10
  %38 = zext i8 %37 to i32
  %39 = sdiv i32 %38, 2
  %40 = add nsw i32 %34, %39
  %41 = and i32 %40, 255
  %42 = trunc i32 %41 to i8
  %43 = load ptr, ptr %8, align 8, !tbaa !8
  store i8 %42, ptr %43, align 1, !tbaa !10
  %44 = load ptr, ptr %8, align 8, !tbaa !8
  %45 = getelementptr inbounds nuw i8, ptr %44, i32 1
  store ptr %45, ptr %8, align 8, !tbaa !8
  br label %46

46:                                               ; preds = %31
  %47 = load i64, ptr %7, align 8, !tbaa !29
  %48 = add i64 %47, 1
  store i64 %48, ptr %7, align 8, !tbaa !29
  br label %26, !llvm.loop !206

49:                                               ; preds = %26
  store i64 0, ptr %7, align 8, !tbaa !29
  br label %50

50:                                               ; preds = %77, %49
  %51 = load i64, ptr %7, align 8, !tbaa !29
  %52 = load i64, ptr %11, align 8, !tbaa !29
  %53 = icmp ult i64 %51, %52
  br i1 %53, label %54, label %80

54:                                               ; preds = %50
  %55 = load ptr, ptr %8, align 8, !tbaa !8
  %56 = load i8, ptr %55, align 1, !tbaa !10
  %57 = zext i8 %56 to i32
  %58 = load ptr, ptr %9, align 8, !tbaa !8
  %59 = getelementptr inbounds nuw i8, ptr %58, i32 1
  store ptr %59, ptr %9, align 8, !tbaa !8
  %60 = load i8, ptr %58, align 1, !tbaa !10
  %61 = zext i8 %60 to i32
  %62 = load ptr, ptr %8, align 8, !tbaa !8
  %63 = load i32, ptr %10, align 4, !tbaa !11
  %64 = zext i32 %63 to i64
  %65 = sub i64 0, %64
  %66 = getelementptr inbounds i8, ptr %62, i64 %65
  %67 = load i8, ptr %66, align 1, !tbaa !10
  %68 = zext i8 %67 to i32
  %69 = add nsw i32 %61, %68
  %70 = sdiv i32 %69, 2
  %71 = add nsw i32 %57, %70
  %72 = and i32 %71, 255
  %73 = trunc i32 %72 to i8
  %74 = load ptr, ptr %8, align 8, !tbaa !8
  store i8 %73, ptr %74, align 1, !tbaa !10
  %75 = load ptr, ptr %8, align 8, !tbaa !8
  %76 = getelementptr inbounds nuw i8, ptr %75, i32 1
  store ptr %76, ptr %8, align 8, !tbaa !8
  br label %77

77:                                               ; preds = %54
  %78 = load i64, ptr %7, align 8, !tbaa !29
  %79 = add i64 %78, 1
  store i64 %79, ptr %7, align 8, !tbaa !29
  br label %50, !llvm.loop !207

80:                                               ; preds = %50
  call void @llvm.lifetime.end.p0(i64 8, ptr %11) #7
  call void @llvm.lifetime.end.p0(i64 4, ptr %10) #7
  call void @llvm.lifetime.end.p0(i64 8, ptr %9) #7
  call void @llvm.lifetime.end.p0(i64 8, ptr %8) #7
  call void @llvm.lifetime.end.p0(i64 8, ptr %7) #7
  ret void
}